target datalayout = "e-m:e-p270:32:32-p271:32:32-p272:64:64-i64:64-i128:128-f80:128-n8:16:32:64-S128"
target triple = "x86_64-unknown-linux-gnu"

%"struct.bound_propagator::bound" = type { %class.mpq, double, i32, i32, %union.anon, ptr }
%class.mpq = type { %class.mpz, %class.mpz }
%class.mpz = type { i32, i8, ptr }
%union.anon = type { i32 }

; Function Attrs: mustprogress nounwind uwtable
define linkonce_odr hidden noundef zeroext i1 @_ZN11mpz_managerILb0EE8is_smallERK3mpz(ptr noundef nonnull align 8 dereferenceable(16) %a) #5 comdat align 2 {
entry:
  %a.addr = alloca ptr, align 8
  store ptr %a, ptr %a.addr, align 8
  %0 = load ptr, ptr %a.addr, align 8
  %m_kind = getelementptr inbounds %class.mpz, ptr %0, i32 0, i32 1
  %bf.load = load i8, ptr %m_kind, align 4
  %bf.clear = and i8 %bf.load, 1
  %bf.cast = zext i8 %bf.clear to i32
  %cmp = icmp eq i32 %bf.cast, 0
  ret i1 %cmp
}

; Function Attrs: mustprogress uwtable
define linkonce_odr hidden void @_ZN11mpz_managerILb0EE3setER3mpzRKS1_(ptr noundef nonnull align 8 dereferenceable(600) %this, ptr noundef nonnull align 8 dereferenceable(16) %target, ptr noundef nonnull align 8 dereferenceable(16) %source) #4 comdat align 2 {
entry:
  %this.addr = alloca ptr, align 8
  %target.addr = alloca ptr, align 8
  %source.addr = alloca ptr, align 8
  store ptr %this, ptr %this.addr, align 8
  store ptr %target, ptr %target.addr, align 8
  store ptr %source, ptr %source.addr, align 8
  %this1 = load ptr, ptr %this.addr, align 8
  %0 = load ptr, ptr %source.addr, align 8
  %call = call noundef zeroext i1 @_ZN11mpz_managerILb0EE8is_smallERK3mpz(ptr noundef nonnull align 8 dereferenceable(16) %0)
  br i1 %call, label %if.then, label %if.else

if.then:                                          ; preds = %entry
  %1 = load ptr, ptr %source.addr, align 8
  %m_val = getelementptr inbounds %class.mpz, ptr %1, i32 0, i32 0
  %2 = load i32, ptr %m_val, align 8
  %3 = load ptr, ptr %target.addr, align 8
  %m_val2 = getelementptr inbounds %class.mpz, ptr %3, i32 0, i32 0
  store i32 %2, ptr %m_val2, align 8
  %4 = load ptr, ptr %target.addr, align 8
  %m_kind = getelementptr inbounds %class.mpz, ptr %4, i32 0, i32 1
  %bf.load = load i8, ptr %m_kind, align 4
  %bf.clear = and i8 %bf.load, -2
  %bf.set = or i8 %bf.clear, 0
  store i8 %bf.set, ptr %m_kind, align 4
  br label %if.end

if.else:                                          ; preds = %entry
  %5 = load ptr, ptr %target.addr, align 8
  %6 = load ptr, ptr %source.addr, align 8
  call void @_ZN11mpz_managerILb0EE7big_setER3mpzRKS1_(ptr noundef nonnull align 8 dereferenceable(600) %this1, ptr noundef nonnull align 8 dereferenceable(16) %5, ptr noundef nonnull align 8 dereferenceable(16) %6)
  br label %if.end

if.end:                                           ; preds = %if.else, %if.then
  ret void
}

; Function Attrs: mustprogress uwtable
define linkonce_odr hidden void @_ZN11mpq_managerILb0EE3setER3mpzRKS1_(ptr noundef nonnull align 8 dereferenceable(728) %this, ptr noundef nonnull align 8 dereferenceable(16) %target, ptr noundef nonnull align 8 dereferenceable(16) %source) #4 comdat align 2 {
entry:
  %this.addr = alloca ptr, align 8
  %target.addr = alloca ptr, align 8
  %source.addr = alloca ptr, align 8
  store ptr %this, ptr %this.addr, align 8
  store ptr %target, ptr %target.addr, align 8
  store ptr %source, ptr %source.addr, align 8
  %this1 = load ptr, ptr %this.addr, align 8
  %0 = load ptr, ptr %target.addr, align 8
  %1 = load ptr, ptr %source.addr, align 8
  call void @_ZN11mpz_managerILb0EE3setER3mpzRKS1_(ptr noundef nonnull align 8 dereferenceable(600) %this1, ptr noundef nonnull align 8 dereferenceable(16) %0, ptr noundef nonnull align 8 dereferenceable(16) %1)
  ret void
}

; Function Attrs: mustprogress nounwind uwtable
define linkonce_odr hidden void @_ZN3mpzC2Ei(ptr noundef nonnull align 8 dereferenceable(16) %this, i32 noundef %v) unnamed_addr #5 comdat align 2 {
entry:
  %this.addr = alloca ptr, align 8
  %v.addr = alloca i32, align 4
  store ptr %this, ptr %this.addr, align 8
  store i32 %v, ptr %v.addr, align 4
  %this1 = load ptr, ptr %this.addr, align 8
  %m_val = getelementptr inbounds %class.mpz, ptr %this1, i32 0, i32 0
  %0 = load i32, ptr %v.addr, align 4
  store i32 %0, ptr %m_val, align 8
  %m_kind = getelementptr inbounds %class.mpz, ptr %this1, i32 0, i32 1
  %bf.load = load i8, ptr %m_kind, align 4
  %bf.clear = and i8 %bf.load, -2
  %bf.set = or i8 %bf.clear, 0
  store i8 %bf.set, ptr %m_kind, align 4
  %m_owner = getelementptr inbounds %class.mpz, ptr %this1, i32 0, i32 1
  %bf.load2 = load i8, ptr %m_owner, align 4
  %bf.clear3 = and i8 %bf.load2, -3
  %bf.set4 = or i8 %bf.clear3, 0
  store i8 %bf.set4, ptr %m_owner, align 4
  %m_ptr = getelementptr inbounds %class.mpz, ptr %this1, i32 0, i32 2
  store ptr null, ptr %m_ptr, align 8
  ret void
}

; Function Attrs: mustprogress nounwind uwtable
define linkonce_odr hidden void @_ZN3mpzC2Ev(ptr noundef nonnull align 8 dereferenceable(16) %this) unnamed_addr #5 comdat align 2 {
entry:
  %this.addr = alloca ptr, align 8
  store ptr %this, ptr %this.addr, align 8
  %this1 = load ptr, ptr %this.addr, align 8
  %m_val = getelementptr inbounds %class.mpz, ptr %this1, i32 0, i32 0
  store i32 0, ptr %m_val, align 8
  %m_kind = getelementptr inbounds %class.mpz, ptr %this1, i32 0, i32 1
  %bf.load = load i8, ptr %m_kind, align 4
  %bf.clear = and i8 %bf.load, -2
  %bf.set = or i8 %bf.clear, 0
  store i8 %bf.set, ptr %m_kind, align 4
  %m_owner = getelementptr inbounds %class.mpz, ptr %this1, i32 0, i32 1
  %bf.load2 = load i8, ptr %m_owner, align 4
  %bf.clear3 = and i8 %bf.load2, -3
  %bf.set4 = or i8 %bf.clear3, 0
  store i8 %bf.set4, ptr %m_owner, align 4
  %m_ptr = getelementptr inbounds %class.mpz, ptr %this1, i32 0, i32 2
  store ptr null, ptr %m_ptr, align 8
  ret void
}

; Function Attrs: mustprogress uwtable
define linkonce_odr hidden void @_ZN11mpq_managerILb0EE3setER3mpqRKS1_(ptr noundef nonnull align 8 dereferenceable(728) %this, ptr noundef nonnull align 8 dereferenceable(32) %target, ptr noundef nonnull align 8 dereferenceable(32) %source) #4 comdat align 2 {
entry:
  %this.addr = alloca ptr, align 8
  %target.addr = alloca ptr, align 8
  %source.addr = alloca ptr, align 8
  store ptr %this, ptr %this.addr, align 8
  store ptr %target, ptr %target.addr, align 8
  store ptr %source, ptr %source.addr, align 8
  %this1 = load ptr, ptr %this.addr, align 8
  %0 = load ptr, ptr %target.addr, align 8
  %m_num = getelementptr inbounds %class.mpq, ptr %0, i32 0, i32 0
  %1 = load ptr, ptr %source.addr, align 8
  %m_num2 = getelementptr inbounds %class.mpq, ptr %1, i32 0, i32 0
  call void @_ZN11mpq_managerILb0EE3setER3mpzRKS1_(ptr noundef nonnull align 8 dereferenceable(728) %this1, ptr noundef nonnull align 8 dereferenceable(16) %m_num, ptr noundef nonnull align 8 dereferenceable(16) %m_num2)
  %2 = load ptr, ptr %target.addr, align 8
  %m_den = getelementptr inbounds %class.mpq, ptr %2, i32 0, i32 1
  %3 = load ptr, ptr %source.addr, align 8
  %m_den3 = getelementptr inbounds %class.mpq, ptr %3, i32 0, i32 1
  call void @_ZN11mpq_managerILb0EE3setER3mpzRKS1_(ptr noundef nonnull align 8 dereferenceable(728) %this1, ptr noundef nonnull align 8 dereferenceable(16) %m_den, ptr noundef nonnull align 8 dereferenceable(16) %m_den3)
  ret void
}

; Function Attrs: mustprogress uwtable
define linkonce_odr hidden void @_ZN3mpqC2Ev(ptr noundef nonnull align 8 dereferenceable(32) %this) unnamed_addr #4 comdat align 2 {
entry:
  %this.addr = alloca ptr, align 8
  store ptr %this, ptr %this.addr, align 8
  %this1 = load ptr, ptr %this.addr, align 8
  %m_num = getelementptr inbounds %class.mpq, ptr %this1, i32 0, i32 0
  call void @_ZN3mpzC2Ev(ptr noundef nonnull align 8 dereferenceable(16) %m_num)
  %m_den = getelementptr inbounds %class.mpq, ptr %this1, i32 0, i32 1
  call void @_ZN3mpzC2Ei(ptr noundef nonnull align 8 dereferenceable(16) %m_den, i32 noundef 1)
  ret void
}

; Function Attrs: mustprogress uwtable
define hidden void @_ZN16bound_propagator5boundC2ER11mpq_managerILb0EERK3mpqdbbjjNS_5bkindEjjPS0_(ptr noundef nonnull align 8 dereferenceable(64) %this, ptr noundef nonnull align 8 dereferenceable(728) %m, ptr noundef nonnull align 8 dereferenceable(32) %k, double noundef %approx_k, i1 noundef zeroext %lower, i1 noundef zeroext %strict, i32 noundef %lvl, i32 noundef %ts, i32 noundef %bk, i32 noundef %c_idx, i32 noundef %a, ptr noundef %prev) unnamed_addr #4 align 2 {
entry:
  %this.addr = alloca ptr, align 8
  %m.addr = alloca ptr, align 8
  %k.addr = alloca ptr, align 8
  %approx_k.addr = alloca double, align 8
  %lower.addr = alloca i8, align 1
  %strict.addr = alloca i8, align 1
  %lvl.addr = alloca i32, align 4
  %ts.addr = alloca i32, align 4
  %bk.addr = alloca i32, align 4
  %c_idx.addr = alloca i32, align 4
  %a.addr = alloca i32, align 4
  %prev.addr = alloca ptr, align 8
  store ptr %this, ptr %this.addr, align 8
  store ptr %m, ptr %m.addr, align 8
  store ptr %k, ptr %k.addr, align 8
  store double %approx_k, ptr %approx_k.addr, align 8
  %frombool = zext i1 %lower to i8
  store i8 %frombool, ptr %lower.addr, align 1
  %frombool1 = zext i1 %strict to i8
  store i8 %frombool1, ptr %strict.addr, align 1
  store i32 %lvl, ptr %lvl.addr, align 4
  store i32 %ts, ptr %ts.addr, align 4
  store i32 %bk, ptr %bk.addr, align 4
  store i32 %c_idx, ptr %c_idx.addr, align 4
  store i32 %a, ptr %a.addr, align 4
  store ptr %prev, ptr %prev.addr, align 8
  %this2 = load ptr, ptr %this.addr, align 8
  %m_k = getelementptr inbounds %"struct.bound_propagator::bound", ptr %this2, i32 0, i32 0
  call void @_ZN3mpqC2Ev(ptr noundef nonnull align 8 dereferenceable(32) %m_k)
  %m_approx_k = getelementptr inbounds %"struct.bound_propagator::bound", ptr %this2, i32 0, i32 1
  %0 = load double, ptr %approx_k.addr, align 8
  store double %0, ptr %m_approx_k, align 8
  %m_lower = getelementptr inbounds %"struct.bound_propagator::bound", ptr %this2, i32 0, i32 2
  %1 = load i8, ptr %lower.addr, align 1
  %tobool = trunc i8 %1 to i1
  %conv = zext i1 %tobool to i32
  %bf.load = load i32, ptr %m_lower, align 8
  %bf.value = and i32 %conv, 1
  %bf.clear = and i32 %bf.load, -2
  %bf.set = or i32 %bf.clear, %bf.value
  store i32 %bf.set, ptr %m_lower, align 8
  %m_strict = getelementptr inbounds %"struct.bound_propagator::bound", ptr %this2, i32 0, i32 2
  %2 = load i8, ptr %strict.addr, align 1
  %tobool3 = trunc i8 %2 to i1
  %conv4 = zext i1 %tobool3 to i32
  %bf.load5 = load i32, ptr %m_strict, align 8
  %bf.value6 = and i32 %conv4, 1
  %bf.shl = shl i32 %bf.value6, 1
  %bf.clear7 = and i32 %bf.load5, -3
  %bf.set8 = or i32 %bf.clear7, %bf.shl
  store i32 %bf.set8, ptr %m_strict, align 8
  %m_kind = getelementptr inbounds %"struct.bound_propagator::bound", ptr %this2, i32 0, i32 2
  %3 = load i32, ptr %bk.addr, align 4
  %bf.load9 = load i32, ptr %m_kind, align 8
  %bf.value10 = and i32 %3, 3
  %bf.shl11 = shl i32 %bf.value10, 3
  %bf.clear12 = and i32 %bf.load9, -25
  %bf.set13 = or i32 %bf.clear12, %bf.shl11
  store i32 %bf.set13, ptr %m_kind, align 8
  %m_level = getelementptr inbounds %"struct.bound_propagator::bound", ptr %this2, i32 0, i32 2
  %4 = load i32, ptr %lvl.addr, align 4
  %bf.load14 = load i32, ptr %m_level, align 8
  %bf.value15 = and i32 %4, 134217727
  %bf.shl16 = shl i32 %bf.value15, 5
  %bf.clear17 = and i32 %bf.load14, 31
  %bf.set18 = or i32 %bf.clear17, %bf.shl16
  store i32 %bf.set18, ptr %m_level, align 8
  %m_timestamp = getelementptr inbounds %"struct.bound_propagator::bound", ptr %this2, i32 0, i32 3
  %5 = load i32, ptr %ts.addr, align 4
  store i32 %5, ptr %m_timestamp, align 4
  %m_prev = getelementptr inbounds %"struct.bound_propagator::bound", ptr %this2, i32 0, i32 5
  %6 = load ptr, ptr %prev.addr, align 8
  store ptr %6, ptr %m_prev, align 8
  %7 = load ptr, ptr %m.addr, align 8
  %m_k19 = getelementptr inbounds %"struct.bound_propagator::bound", ptr %this2, i32 0, i32 0
  %8 = load ptr, ptr %k.addr, align 8
  call void @_ZN11mpq_managerILb0EE3setER3mpqRKS1_(ptr noundef nonnull align 8 dereferenceable(728) %7, ptr noundef nonnull align 8 dereferenceable(32) %m_k19, ptr noundef nonnull align 8 dereferenceable(32) %8)
  %9 = load i32, ptr %bk.addr, align 4
  %cmp = icmp eq i32 %9, 2
  br i1 %cmp, label %if.then, label %if.else

if.then:                                          ; preds = %entry
  %10 = load i32, ptr %c_idx.addr, align 4
  %11 = getelementptr inbounds %"struct.bound_propagator::bound", ptr %this2, i32 0, i32 4
  store i32 %10, ptr %11, align 8
  br label %if.end

if.else:                                          ; preds = %entry
  %12 = load i32, ptr %a.addr, align 4
  %13 = getelementptr inbounds %"struct.bound_propagator::bound", ptr %this2, i32 0, i32 4
  store i32 %12, ptr %13, align 8
  br label %if.end

if.end:                                           ; preds = %if.else, %if.then
  ret void
}