; Function Attrs: mustprogress uwtable
define hidden void @_ZN16bound_propagator5boundC2ER11mpq_managerILb0EERK3mpqdbbjjNS_5bkindEjjPS0_(ptr noundef nonnull align 8 dereferenceable(64) %this, ptr noundef nonnull align 8 dereferenceable(728) %m, ptr noundef nonnull align 8 dereferenceable(32) %k, double noundef %approx_k, i1 noundef zeroext %lower, i1 noundef zeroext %strict, i32 noundef %lvl, i32 noundef %ts, i32 noundef %bk, i32 noundef %c_idx, i32 noundef %a, ptr noundef %prev) unnamed_addr #3 align 2 {
entry:
  store i32 0, ptr %this, align 8
  %m_kind.i.i = getelementptr inbounds i8, ptr %this, i64 4
  %bf.load.i.i = load i8, ptr %m_kind.i.i, align 4
  %bf.clear3.i.i = and i8 %bf.load.i.i, -4
  store i8 %bf.clear3.i.i, ptr %m_kind.i.i, align 4
  %m_ptr.i.i = getelementptr inbounds i8, ptr %this, i64 8
  store ptr null, ptr %m_ptr.i.i, align 8
  %m_den.i = getelementptr inbounds i8, ptr %this, i64 16
  store i32 1, ptr %m_den.i, align 8
  %m_kind.i1.i = getelementptr inbounds i8, ptr %this, i64 20
  %bf.load.i2.i = load i8, ptr %m_kind.i1.i, align 4
  %bf.clear3.i3.i = and i8 %bf.load.i2.i, -4
  store i8 %bf.clear3.i3.i, ptr %m_kind.i1.i, align 4
  %m_ptr.i4.i = getelementptr inbounds i8, ptr %this, i64 24
  store ptr null, ptr %m_ptr.i4.i, align 8
  %m_approx_k = getelementptr inbounds i8, ptr %this, i64 32
  store double %approx_k, ptr %m_approx_k, align 8
  %m_lower = getelementptr inbounds i8, ptr %this, i64 40
  %conv = zext i1 %lower to i32
  %bf.load = load i32, ptr %m_lower, align 8
  %bf.clear = and i32 %bf.load, 4
  %bf.shl = select i1 %strict, i32 2, i32 0
  %bf.value10 = shl i32 %bk, 3
  %bf.value15 = shl i32 %lvl, 5
  %bf.value10.masked = and i32 %bf.value10, 24
  %bf.clear17 = or disjoint i32 %bf.shl, %conv
  %bf.set8 = or disjoint i32 %bf.clear17, %bf.value15
  %bf.set = or disjoint i32 %bf.set8, %bf.value10.masked
  %bf.set18 = or disjoint i32 %bf.set, %bf.clear
  store i32 %bf.set18, ptr %m_lower, align 8
  %m_timestamp = getelementptr inbounds i8, ptr %this, i64 44
  store i32 %ts, ptr %m_timestamp, align 4
  %m_prev = getelementptr inbounds i8, ptr %this, i64 56
  store ptr %prev, ptr %m_prev, align 8
  %m_kind.i.i.i.i = getelementptr inbounds i8, ptr %k, i64 4
  %bf.load.i.i.i.i = load i8, ptr %m_kind.i.i.i.i, align 4
  %bf.clear.i.i.i.i = and i8 %bf.load.i.i.i.i, 1
  %cmp.i.i.i.i = icmp eq i8 %bf.clear.i.i.i.i, 0
  br i1 %cmp.i.i.i.i, label %if.then.i.i.i, label %if.else.i.i.i

if.then.i.i.i:                                    ; preds = %entry
  %0 = load i32, ptr %k, align 8
  store i32 %0, ptr %this, align 8
  store i8 %bf.clear3.i.i, ptr %m_kind.i.i, align 4
  br label %_ZN11mpq_managerILb0EE3setER3mpzRKS1_.exit.i

if.else.i.i.i:                                    ; preds = %entry
  tail call void @_ZN11mpz_managerILb0EE7big_setER3mpzRKS1_(ptr noundef nonnull align 8 dereferenceable(600) %m, ptr noundef nonnull align 8 dereferenceable(16) %this, ptr noundef nonnull align 8 dereferenceable(16) %k)
  br label %_ZN11mpq_managerILb0EE3setER3mpzRKS1_.exit.i

_ZN11mpq_managerILb0EE3setER3mpzRKS1_.exit.i:     ; preds = %if.else.i.i.i, %if.then.i.i.i
  %m_den3.i = getelementptr inbounds i8, ptr %k, i64 16
  %m_kind.i.i.i3.i = getelementptr inbounds i8, ptr %k, i64 20
  %bf.load.i.i.i4.i = load i8, ptr %m_kind.i.i.i3.i, align 4
  %bf.clear.i.i.i5.i = and i8 %bf.load.i.i.i4.i, 1
  %cmp.i.i.i6.i = icmp eq i8 %bf.clear.i.i.i5.i, 0
  br i1 %cmp.i.i.i6.i, label %if.then.i.i8.i, label %if.else.i.i7.i

if.then.i.i8.i:                                   ; preds = %_ZN11mpq_managerILb0EE3setER3mpzRKS1_.exit.i
  %1 = load i32, ptr %m_den3.i, align 8
  store i32 %1, ptr %m_den.i, align 8
  %bf.load.i.i10.i = load i8, ptr %m_kind.i1.i, align 4
  %bf.clear.i.i11.i = and i8 %bf.load.i.i10.i, -2
  store i8 %bf.clear.i.i11.i, ptr %m_kind.i1.i, align 4
  br label %_ZN11mpq_managerILb0EE3setER3mpqRKS1_.exit

if.else.i.i7.i:                                   ; preds = %_ZN11mpq_managerILb0EE3setER3mpzRKS1_.exit.i
  tail call void @_ZN11mpz_managerILb0EE7big_setER3mpzRKS1_(ptr noundef nonnull align 8 dereferenceable(600) %m, ptr noundef nonnull align 8 dereferenceable(16) %m_den.i, ptr noundef nonnull align 8 dereferenceable(16) %m_den3.i)
  br label %_ZN11mpq_managerILb0EE3setER3mpqRKS1_.exit

_ZN11mpq_managerILb0EE3setER3mpqRKS1_.exit:       ; preds = %if.then.i.i8.i, %if.else.i.i7.i
  %cmp = icmp eq i32 %bk, 2
  %spec.select = select i1 %cmp, i32 %c_idx, i32 %a
  %2 = getelementptr inbounds i8, ptr %this, i64 48
  store i32 %spec.select, ptr %2, align 8
  ret void
}